target datalayout = "e-m:e-p270:32:32-p271:32:32-p272:64:64-i64:64-i128:128-f80:128-n8:16:32:64-S128"
target triple = "x86_64-pc-linux-gnu"

%struct.ForEachState = type { ptr, i32 }
%struct.List = type { i32, i32, i32, ptr, [0 x %union.ListCell] }
%union.ListCell = type { ptr }
%struct.Query = type { i32, i32, i32, i64, i8, ptr, i32, i8, i8, i8, i8, i8, i8, i8, i8, i8, i8, i8, ptr, ptr, ptr, ptr, ptr, i32, ptr, ptr, i32, ptr, ptr, ptr, ptr, ptr, i8, ptr, ptr, ptr, ptr, ptr, ptr, ptr, i32, ptr, ptr, ptr, ptr, i32, i32 }
%struct.RangeTblEntry = type { i32, ptr, ptr, i32, i32, i8, i8, i32, i32, ptr, ptr, i8, i32, i32, ptr, ptr, ptr, ptr, ptr, i8, ptr, ptr, ptr, i32, i8, ptr, ptr, ptr, ptr, double, ptr, i8, i8, ptr }
%struct.CommonTableExpr = type { i32, ptr, ptr, i32, ptr, ptr, ptr, i32, i8, i32, ptr, ptr, ptr, ptr }

; Function Attrs: nounwind uwtable
define internal void @ScanQueryForLocks(ptr noundef %0, i1 noundef zeroext %1) #0 {
  %3 = alloca ptr, align 8
  %4 = alloca i8, align 1
  %5 = alloca ptr, align 8
  %6 = alloca %struct.ForEachState, align 8
  %7 = alloca ptr, align 8
  %8 = alloca %struct.ForEachState, align 8
  %9 = alloca ptr, align 8
  store ptr %0, ptr %3, align 8
  %10 = zext i1 %1 to i8
  store i8 %10, ptr %4, align 1
  call void @llvm.lifetime.start.p0(i64 8, ptr %5) #8
  call void @llvm.lifetime.start.p0(i64 16, ptr %6) #8
  %11 = getelementptr inbounds nuw %struct.ForEachState, ptr %6, i32 0, i32 0
  %12 = load ptr, ptr %3, align 8
  %13 = getelementptr inbounds nuw %struct.Query, ptr %12, i32 0, i32 19
  %14 = load ptr, ptr %13, align 8
  store ptr %14, ptr %11, align 8
  %15 = getelementptr inbounds nuw %struct.ForEachState, ptr %6, i32 0, i32 1
  store i32 0, ptr %15, align 8
  %16 = getelementptr i8, ptr %6, i64 12
  call void @llvm.memset.p0.i64(ptr align 4 %16, i8 0, i64 4, i1 false)
  br label %17

17:                                               ; preds = %98, %2
  %18 = getelementptr inbounds nuw %struct.ForEachState, ptr %6, i32 0, i32 0
  %19 = load ptr, ptr %18, align 8
  %20 = icmp ne ptr %19, null
  br i1 %20, label %21, label %38

21:                                               ; preds = %17
  %22 = getelementptr inbounds nuw %struct.ForEachState, ptr %6, i32 0, i32 1
  %23 = load i32, ptr %22, align 8
  %24 = getelementptr inbounds nuw %struct.ForEachState, ptr %6, i32 0, i32 0
  %25 = load ptr, ptr %24, align 8
  %26 = getelementptr inbounds nuw %struct.List, ptr %25, i32 0, i32 1
  %27 = load i32, ptr %26, align 4
  %28 = icmp slt i32 %23, %27
  br i1 %28, label %29, label %38

29:                                               ; preds = %21
  %30 = getelementptr inbounds nuw %struct.ForEachState, ptr %6, i32 0, i32 0
  %31 = load ptr, ptr %30, align 8
  %32 = getelementptr inbounds nuw %struct.List, ptr %31, i32 0, i32 3
  %33 = load ptr, ptr %32, align 8
  %34 = getelementptr inbounds nuw %struct.ForEachState, ptr %6, i32 0, i32 1
  %35 = load i32, ptr %34, align 8
  %36 = sext i32 %35 to i64
  %37 = getelementptr inbounds %union.ListCell, ptr %33, i64 %36
  store ptr %37, ptr %5, align 8
  br label %39

38:                                               ; preds = %21, %17
  store ptr null, ptr %5, align 8
  br label %39

39:                                               ; preds = %38, %29
  %40 = phi i32 [ 1, %29 ], [ 0, %38 ]
  %41 = icmp ne i32 %40, 0
  br i1 %41, label %43, label %42

42:                                               ; preds = %39
  call void @llvm.lifetime.end.p0(i64 16, ptr %6) #8
  br label %102

43:                                               ; preds = %39
  call void @llvm.lifetime.start.p0(i64 8, ptr %7) #8
  %44 = load ptr, ptr %5, align 8
  %45 = load ptr, ptr %44, align 8
  store ptr %45, ptr %7, align 8
  %46 = load ptr, ptr %7, align 8
  %47 = getelementptr inbounds nuw %struct.RangeTblEntry, ptr %46, i32 0, i32 3
  %48 = load i32, ptr %47, align 8
  switch i32 %48, label %96 [
    i32 0, label %49
    i32 1, label %67
  ]

49:                                               ; preds = %43
  %50 = load i8, ptr %4, align 1, !range !4, !noundef !5
  %51 = trunc i8 %50 to i1
  br i1 %51, label %52, label %59

52:                                               ; preds = %49
  %53 = load ptr, ptr %7, align 8
  %54 = getelementptr inbounds nuw %struct.RangeTblEntry, ptr %53, i32 0, i32 4
  %55 = load i32, ptr %54, align 4
  %56 = load ptr, ptr %7, align 8
  %57 = getelementptr inbounds nuw %struct.RangeTblEntry, ptr %56, i32 0, i32 7
  %58 = load i32, ptr %57, align 4
  call void @LockRelationOid(i32 noundef %55, i32 noundef %58)
  br label %66

59:                                               ; preds = %49
  %60 = load ptr, ptr %7, align 8
  %61 = getelementptr inbounds nuw %struct.RangeTblEntry, ptr %60, i32 0, i32 4
  %62 = load i32, ptr %61, align 4
  %63 = load ptr, ptr %7, align 8
  %64 = getelementptr inbounds nuw %struct.RangeTblEntry, ptr %63, i32 0, i32 7
  %65 = load i32, ptr %64, align 4
  call void @UnlockRelationOid(i32 noundef %62, i32 noundef %65)
  br label %66

66:                                               ; preds = %59, %52
  br label %97

67:                                               ; preds = %43
  %68 = load ptr, ptr %7, align 8
  %69 = getelementptr inbounds nuw %struct.RangeTblEntry, ptr %68, i32 0, i32 4
  %70 = load i32, ptr %69, align 4
  %71 = icmp ne i32 %70, 0
  br i1 %71, label %72, label %90

72:                                               ; preds = %67
  %73 = load i8, ptr %4, align 1, !range !4, !noundef !5
  %74 = trunc i8 %73 to i1
  br i1 %74, label %75, label %82

75:                                               ; preds = %72
  %76 = load ptr, ptr %7, align 8
  %77 = getelementptr inbounds nuw %struct.RangeTblEntry, ptr %76, i32 0, i32 4
  %78 = load i32, ptr %77, align 4
  %79 = load ptr, ptr %7, align 8
  %80 = getelementptr inbounds nuw %struct.RangeTblEntry, ptr %79, i32 0, i32 7
  %81 = load i32, ptr %80, align 4
  call void @LockRelationOid(i32 noundef %78, i32 noundef %81)
  br label %89

82:                                               ; preds = %72
  %83 = load ptr, ptr %7, align 8
  %84 = getelementptr inbounds nuw %struct.RangeTblEntry, ptr %83, i32 0, i32 4
  %85 = load i32, ptr %84, align 4
  %86 = load ptr, ptr %7, align 8
  %87 = getelementptr inbounds nuw %struct.RangeTblEntry, ptr %86, i32 0, i32 7
  %88 = load i32, ptr %87, align 4
  call void @UnlockRelationOid(i32 noundef %85, i32 noundef %88)
  br label %89

89:                                               ; preds = %82, %75
  br label %90

90:                                               ; preds = %89, %67
  %91 = load ptr, ptr %7, align 8
  %92 = getelementptr inbounds nuw %struct.RangeTblEntry, ptr %91, i32 0, i32 10
  %93 = load ptr, ptr %92, align 8
  %94 = load i8, ptr %4, align 1, !range !4, !noundef !5
  %95 = trunc i8 %94 to i1
  call void @ScanQueryForLocks(ptr noundef %93, i1 noundef zeroext %95)
  br label %97

96:                                               ; preds = %43
  br label %97

97:                                               ; preds = %96, %90, %66
  call void @llvm.lifetime.end.p0(i64 8, ptr %7) #8
  br label %98

98:                                               ; preds = %97
  %99 = getelementptr inbounds nuw %struct.ForEachState, ptr %6, i32 0, i32 1
  %100 = load i32, ptr %99, align 8
  %101 = add i32 %100, 1
  store i32 %101, ptr %99, align 8
  br label %17, !llvm.loop !25

102:                                              ; preds = %42
  call void @llvm.lifetime.start.p0(i64 16, ptr %8) #8
  %103 = getelementptr inbounds nuw %struct.ForEachState, ptr %8, i32 0, i32 0
  %104 = load ptr, ptr %3, align 8
  %105 = getelementptr inbounds nuw %struct.Query, ptr %104, i32 0, i32 18
  %106 = load ptr, ptr %105, align 8
  store ptr %106, ptr %103, align 8
  %107 = getelementptr inbounds nuw %struct.ForEachState, ptr %8, i32 0, i32 1
  store i32 0, ptr %107, align 8
  %108 = getelementptr i8, ptr %8, i64 12
  call void @llvm.memset.p0.i64(ptr align 4 %108, i8 0, i64 4, i1 false)
  br label %109

109:                                              ; preds = %143, %102
  %110 = getelementptr inbounds nuw %struct.ForEachState, ptr %8, i32 0, i32 0
  %111 = load ptr, ptr %110, align 8
  %112 = icmp ne ptr %111, null
  br i1 %112, label %113, label %130

113:                                              ; preds = %109
  %114 = getelementptr inbounds nuw %struct.ForEachState, ptr %8, i32 0, i32 1
  %115 = load i32, ptr %114, align 8
  %116 = getelementptr inbounds nuw %struct.ForEachState, ptr %8, i32 0, i32 0
  %117 = load ptr, ptr %116, align 8
  %118 = getelementptr inbounds nuw %struct.List, ptr %117, i32 0, i32 1
  %119 = load i32, ptr %118, align 4
  %120 = icmp slt i32 %115, %119
  br i1 %120, label %121, label %130

121:                                              ; preds = %113
  %122 = getelementptr inbounds nuw %struct.ForEachState, ptr %8, i32 0, i32 0
  %123 = load ptr, ptr %122, align 8
  %124 = getelementptr inbounds nuw %struct.List, ptr %123, i32 0, i32 3
  %125 = load ptr, ptr %124, align 8
  %126 = getelementptr inbounds nuw %struct.ForEachState, ptr %8, i32 0, i32 1
  %127 = load i32, ptr %126, align 8
  %128 = sext i32 %127 to i64
  %129 = getelementptr inbounds %union.ListCell, ptr %125, i64 %128
  store ptr %129, ptr %5, align 8
  br label %131

130:                                              ; preds = %113, %109
  store ptr null, ptr %5, align 8
  br label %131

131:                                              ; preds = %130, %121
  %132 = phi i32 [ 1, %121 ], [ 0, %130 ]
  %133 = icmp ne i32 %132, 0
  br i1 %133, label %135, label %134

134:                                              ; preds = %131
  call void @llvm.lifetime.end.p0(i64 16, ptr %8) #8
  br label %147

135:                                              ; preds = %131
  call void @llvm.lifetime.start.p0(i64 8, ptr %9) #8
  %136 = load ptr, ptr %5, align 8
  %137 = load ptr, ptr %136, align 8
  store ptr %137, ptr %9, align 8
  %138 = load ptr, ptr %9, align 8
  %139 = getelementptr inbounds nuw %struct.CommonTableExpr, ptr %138, i32 0, i32 4
  %140 = load ptr, ptr %139, align 8
  %141 = load i8, ptr %4, align 1, !range !4, !noundef !5
  %142 = trunc i8 %141 to i1
  call void @ScanQueryForLocks(ptr noundef %140, i1 noundef zeroext %142)
  call void @llvm.lifetime.end.p0(i64 8, ptr %9) #8
  br label %143

143:                                              ; preds = %135
  %144 = getelementptr inbounds nuw %struct.ForEachState, ptr %8, i32 0, i32 1
  %145 = load i32, ptr %144, align 8
  %146 = add i32 %145, 1
  store i32 %146, ptr %144, align 8
  br label %109, !llvm.loop !26

147:                                              ; preds = %134
  %148 = load ptr, ptr %3, align 8
  %149 = getelementptr inbounds nuw %struct.Query, ptr %148, i32 0, i32 10
  %150 = load i8, ptr %149, align 1, !range !4, !noundef !5
  %151 = trunc i8 %150 to i1
  br i1 %151, label %152, label %155

152:                                              ; preds = %147
  %153 = load ptr, ptr %3, align 8
  %154 = call zeroext i1 @query_tree_walker_impl(ptr noundef %153, ptr noundef @ScanQueryWalker, ptr noundef %4, i32 noundef 3)
  br label %155

155:                                              ; preds = %152, %147
  call void @llvm.lifetime.end.p0(i64 8, ptr %5) #8
  ret void
}