; Function Attrs: nounwind uwtable
define internal fastcc void @ScanQueryForLocks(ptr noundef %0, i1 noundef zeroext %1) unnamed_addr #0 {
  %3 = alloca i8, align 1
  %4 = zext i1 %1 to i8
  store i8 %4, ptr %3, align 1
  %5 = getelementptr inbounds nuw i8, ptr %0, i64 64
  %6 = load ptr, ptr %5, align 8
  %7 = getelementptr inbounds nuw i8, ptr %6, i64 4
  %.not = icmp eq ptr %6, null
  br i1 %.not, label %._crit_edge, label %.lr.ph

.lr.ph:                                           ; preds = %2
  %8 = getelementptr inbounds nuw i8, ptr %6, i64 16
  %9 = load i32, ptr %7, align 4
  %10 = icmp sgt i32 %9, 0
  br i1 %1, label %.lr.ph.split.us.split, label %.lr.ph.split.split.split

.lr.ph.split.us.split:                            ; preds = %.lr.ph
  br i1 %10, label %.lr.ph54.split.us, label %._crit_edge

.lr.ph54.split.us:                                ; preds = %.lr.ph.split.us.split, %30
  %indvars.iv75 = phi i64 [ %indvars.iv.next76, %30 ], [ 0, %.lr.ph.split.us.split ]
  %11 = load ptr, ptr %8, align 8
  %12 = getelementptr inbounds nuw %union.ListCell, ptr %11, i64 %indvars.iv75
  %13 = load ptr, ptr %12, align 8
  %14 = getelementptr inbounds nuw i8, ptr %13, i64 24
  %15 = load i32, ptr %14, align 8
  switch i32 %15, label %30 [
    i32 0, label %25
    i32 1, label %16
  ]

16:                                               ; preds = %.lr.ph54.split.us
  %17 = getelementptr inbounds nuw i8, ptr %13, i64 28
  %18 = load i32, ptr %17, align 4
  %.not35.us.us55 = icmp eq i32 %18, 0
  br i1 %.not35.us.us55, label %22, label %19

19:                                               ; preds = %16
  %20 = getelementptr inbounds nuw i8, ptr %13, i64 36
  %21 = load i32, ptr %20, align 4
  tail call void @LockRelationOid(i32 noundef %18, i32 noundef %21) #9
  br label %22

22:                                               ; preds = %19, %16
  %23 = getelementptr inbounds nuw i8, ptr %13, i64 56
  %24 = load ptr, ptr %23, align 8
  tail call fastcc void @ScanQueryForLocks(ptr noundef %24, i1 noundef zeroext true)
  br label %30

25:                                               ; preds = %.lr.ph54.split.us
  %26 = getelementptr inbounds nuw i8, ptr %13, i64 28
  %27 = load i32, ptr %26, align 4
  %28 = getelementptr inbounds nuw i8, ptr %13, i64 36
  %29 = load i32, ptr %28, align 4
  tail call void @LockRelationOid(i32 noundef %27, i32 noundef %29) #9
  br label %30

30:                                               ; preds = %25, %22, %.lr.ph54.split.us
  %indvars.iv.next76 = add nuw nsw i64 %indvars.iv75, 1
  %31 = load i32, ptr %7, align 4
  %32 = sext i32 %31 to i64
  %33 = icmp slt i64 %indvars.iv.next76, %32
  br i1 %33, label %.lr.ph54.split.us, label %._crit_edge

.lr.ph.split.split.split:                         ; preds = %.lr.ph
  br i1 %10, label %.lr.ph50, label %._crit_edge

._crit_edge:                                      ; preds = %59, %30, %.lr.ph.split.us.split, %.lr.ph.split.split.split, %2
  %34 = getelementptr inbounds nuw i8, ptr %0, i64 56
  %35 = load ptr, ptr %34, align 8
  %36 = getelementptr inbounds nuw i8, ptr %35, i64 4
  %.not33 = icmp eq ptr %35, null
  br i1 %.not33, label %._crit_edge60, label %.lr.ph59

.lr.ph59:                                         ; preds = %._crit_edge
  %37 = getelementptr inbounds nuw i8, ptr %35, i64 16
  %38 = load i32, ptr %36, align 4
  %39 = icmp sgt i32 %38, 0
  br i1 %39, label %.lr.ph63, label %._crit_edge60

.lr.ph50:                                         ; preds = %.lr.ph.split.split.split, %59
  %indvars.iv = phi i64 [ %indvars.iv.next, %59 ], [ 0, %.lr.ph.split.split.split ]
  %40 = load ptr, ptr %8, align 8
  %41 = getelementptr inbounds nuw %union.ListCell, ptr %40, i64 %indvars.iv
  %42 = load ptr, ptr %41, align 8
  %43 = getelementptr inbounds nuw i8, ptr %42, i64 24
  %44 = load i32, ptr %43, align 8
  switch i32 %44, label %59 [
    i32 0, label %45
    i32 1, label %50
  ]

45:                                               ; preds = %.lr.ph50
  %46 = getelementptr inbounds nuw i8, ptr %42, i64 28
  %47 = load i32, ptr %46, align 4
  %48 = getelementptr inbounds nuw i8, ptr %42, i64 36
  %49 = load i32, ptr %48, align 4
  tail call void @UnlockRelationOid(i32 noundef %47, i32 noundef %49) #9
  br label %59

50:                                               ; preds = %.lr.ph50
  %51 = getelementptr inbounds nuw i8, ptr %42, i64 28
  %52 = load i32, ptr %51, align 4
  %.not35 = icmp eq i32 %52, 0
  br i1 %.not35, label %56, label %53

53:                                               ; preds = %50
  %54 = getelementptr inbounds nuw i8, ptr %42, i64 36
  %55 = load i32, ptr %54, align 4
  tail call void @UnlockRelationOid(i32 noundef %52, i32 noundef %55) #9
  br label %56

56:                                               ; preds = %53, %50
  %57 = getelementptr inbounds nuw i8, ptr %42, i64 56
  %58 = load ptr, ptr %57, align 8
  tail call fastcc void @ScanQueryForLocks(ptr noundef %58, i1 noundef zeroext false)
  br label %59

59:                                               ; preds = %.lr.ph50, %45, %56
  %indvars.iv.next = add nuw nsw i64 %indvars.iv, 1
  %60 = load i32, ptr %7, align 4
  %61 = sext i32 %60 to i64
  %62 = icmp slt i64 %indvars.iv.next, %61
  br i1 %62, label %.lr.ph50, label %._crit_edge

._crit_edge60:                                    ; preds = %.lr.ph63, %.lr.ph59, %._crit_edge
  %63 = getelementptr inbounds nuw i8, ptr %0, i64 47
  %64 = load i8, ptr %63, align 1, !range !4, !noundef !5
  %65 = trunc nuw i8 %64 to i1
  br i1 %65, label %74, label %76

.lr.ph63:                                         ; preds = %.lr.ph59, %.lr.ph63
  %indvars.iv78 = phi i64 [ %indvars.iv.next79, %.lr.ph63 ], [ 0, %.lr.ph59 ]
  %66 = load ptr, ptr %37, align 8
  %67 = getelementptr inbounds nuw %union.ListCell, ptr %66, i64 %indvars.iv78
  %68 = load ptr, ptr %67, align 8
  %69 = getelementptr inbounds nuw i8, ptr %68, i64 32
  %70 = load ptr, ptr %69, align 8
  tail call fastcc void @ScanQueryForLocks(ptr noundef %70, i1 noundef zeroext %1)
  %indvars.iv.next79 = add nuw nsw i64 %indvars.iv78, 1
  %71 = load i32, ptr %36, align 4
  %72 = sext i32 %71 to i64
  %73 = icmp slt i64 %indvars.iv.next79, %72
  br i1 %73, label %.lr.ph63, label %._crit_edge60

74:                                               ; preds = %._crit_edge60
  %75 = call zeroext i1 @query_tree_walker_impl(ptr noundef nonnull %0, ptr noundef nonnull @ScanQueryWalker, ptr noundef nonnull %3, i32 noundef 3) #9
  br label %76

76:                                               ; preds = %74, %._crit_edge60
  ret void
}